Certificate:
    Data:
        Version: 3 (0x2)
        Serial Number:
            94:99:be:14:93:8c:e5:37
    Signature Algorithm: sha256WithRSAEncryption
        Issuer: C=PL, O=SMOK sp. z o. o., OU=Device Certificate Authority, CN=SMOK Device Certificate Authority
        Validity
            Not Before: Mar 16 11:40:26 2020 GMT
            Not After : Mar 16 11:40:26 2021 GMT
        Subject: C=PL, O=SMOK sp. z o. o., CN=Testing Device (1 at local development environment)
        Subject Public Key Info:
            Public Key Algorithm: rsaEncryption
                Public-Key: (1024 bit)
                Modulus:
                    00:ad:18:90:a2:8b:16:4c:90:2b:19:6d:11:de:e9:
                    63:71:7f:2f:3a:75:51:bb:a5:dd:55:d9:05:0c:13:
                    91:17:33:38:c1:e1:e0:a2:01:6b:1b:c6:2b:ce:fd:
                    dc:14:01:e5:9c:87:92:d2:34:ec:29:d4:47:7a:8e:
                    6f:2d:66:99:14:e2:ca:9a:15:ae:53:d9:42:03:05:
                    99:71:c2:98:5c:a0:e4:4f:bd:54:d4:ae:b4:e2:48:
                    ad:c1:22:4b:7a:a4:cc:e9:b5:91:3b:26:6b:0a:1b:
                    69:09:e7:ff:8a:23:81:19:82:18:5f:ad:bb:0c:65:
                    73:c6:15:03:c1:f2:79:20:79
                Exponent: 65537 (0x10001)
        X509v3 extensions:
            X509v3 Basic Constraints: critical
                CA:FALSE
            DeviceID:
                ..1
            Environment:
                ...
            X509v3 Subject Key Identifier:
                C6:63:67:95:95:D4:31:E6:7F:04:B9:A4:B2:0D:09:A4:37:7D:68:59
            X509v3 Authority Key Identifier:
                keyid:A0:AC:D7:11:51:C1:30:9B:F1:C0:37:0E:A2:C3:F9:D8:68:91:B6:BE
                DirName:/C=PL/O=SMOK sp. z o. o./OU=Root Certificate Authority/CN=SMOK Root Certificate Authority/emailAddress=admin@smok.co
                serial:CD:FB:48:2F:03:1A:20:DE

            X509v3 Key Usage: critical
                Digital Signature, Non Repudiation
            X509v3 Extended Key Usage: critical
                TLS Web Client Authentication
    Signature Algorithm: sha256WithRSAEncryption
         54:25:b8:ef:28:9e:ad:22:34:03:4f:ce:98:58:7f:c2:ef:97:
         5c:98:2c:46:48:38:e5:12:dd:3a:13:70:4f:8b:7b:50:e8:12:
         8b:f6:66:75:92:8e:8f:f1:ef:6d:92:06:d1:6e:fa:d0:94:99:
         46:5d:ea:a8:f9:5f:a8:d0:2b:39:a4:ab:79:f9:70:a0:35:d5:
         a1:e0:76:08:e2:a1:75:6a:66:d1:7f:08:37:49:08:d4:a3:4a:
         3f:53:51:24:1b:47:90:de:54:d4:82:b5:72:5c:6e:23:b9:da:
         98:36:9a:35:4d:91:92:1c:e9:28:a5:db:a4:4d:1f:60:a8:47:
         e5:c0:27:ea:ea:bc:ca:7a:92:27:82:04:27:c8:28:e4:86:2b:
         11:22:a2:66:10:18:30:24:61:11:16:4b:75:0a:86:b4:de:7c:
         ae:2e:2e:90:a9:80:7d:2e:e9:09:19:20:02:90:74:95:e5:66:
         31:9d:e2:2c:93:e1:c9:fe:ea:f8:9c:fc:0a:a9:fa:a6:f2:52:
         34:eb:db:1e:63:e1:f7:68:ee:db:43:4d:f4:80:ae:fe:8e:5e:
         56:31:1d:96:8c:f6:e0:05:2d:db:c6:87:61:3a:20:44:8b:0c:
         66:c8:22:fd:0c:c3:6a:66:2e:53:52:06:0b:48:ba:74:1a:6b:
         d4:bb:bd:05:1d:3c:b8:7c:c2:2c:fb:0d:2f:6e:88:ce:1d:bc:
         57:d2:b9:6c:fb:62:6b:95:b4:a5:e8:b5:8d:20:51:f7:b0:21:
         e2:99:66:b0:13:06:20:62:be:d9:9a:61:c2:95:2e:74:2e:96:
         16:fd:a6:9c:a5:0d:f1:5b:df:5f:7a:17:ed:9d:af:71:54:94:
         56:0a:d6:6b:c4:a8:40:25:e8:55:cd:17:9f:af:64:27:c9:d6:
         0d:5a:65:bf:36:e2:7b:06:bd:53:fb:70:80:1a:55:11:84:97:
         d3:f6:91:f8:71:0c:f2:5d:42:1a:79:15:06:41:f8:96:06:09:
         87:db:f5:80:a6:21:38:eb:e5:91:84:f4:4a:d3:a8:0a:00:3b:
         4b:b4:09:f2:9d:85:6e:f9:52:79:c4:16:8e:1f:dd:5e:5e:30:
         c6:ba:2e:e7:35:03:5c:17:10:16:95:01:ec:ac:bc:93:1b:96:
         d2:27:9d:9b:ed:d7:ff:0e:8b:69:32:b0:88:28:bd:2d:ce:fd:
         b0:bc:11:96:eb:df:1a:1d:b3:46:07:4f:04:9b:b2:16:76:f8:
         f1:81:95:3a:af:05:0c:b8:94:af:6d:3b:8c:d0:60:cd:96:5b:
         0f:ca:d4:37:a1:36:16:2b:64:9e:69:61:cd:8f:46:dd:a8:91:
         e7:bc:de:89:dc:69:f4:0a
-----BEGIN CERTIFICATE-----
MIIFLjCCAxagAwIBAgIJAJSZvhSTjOU3MA0GCSqGSIb3DQEBCwUAMHsxCzAJBgNV
BAYTAlBMMRkwFwYDVQQKDBBTTU9LIHNwLiB6IG8uIG8uMSUwIwYDVQQLDBxEZXZp
Y2UgQ2VydGlmaWNhdGUgQXV0aG9yaXR5MSowKAYDVQQDDCFTTU9LIERldmljZSBD
ZXJ0aWZpY2F0ZSBBdXRob3JpdHkwHhcNMjAwMzE2MTE0MDI2WhcNMjEwMzE2MTE0
MDI2WjBmMQswCQYDVQQGEwJQTDEZMBcGA1UECgwQU01PSyBzcC4geiBvLiBvLjE8
MDoGA1UEAwwzVGVzdGluZyBEZXZpY2UgKDEgYXQgbG9jYWwgZGV2ZWxvcG1lbnQg
ZW52aXJvbm1lbnQpMIGfMA0GCSqGSIb3DQEBAQUAA4GNADCBiQKBgQCtGJCiixZM
kCsZbRHe6WNxfy86dVG7pd1V2QUME5EXMzjB4eCiAWsbxivO/dwUAeWch5LSNOwp
1Ed6jm8tZpkU4sqaFa5T2UIDBZlxwphcoORPvVTUrrTiSK3BIkt6pMzptZE7JmsK
G2kJ5/+KI4EZghhfrbsMZXPGFQPB8nkgeQIDAQABo4IBTDCCAUgwDAYDVR0TAQH/
BAIwADARBgorBgEEAYOwKgAABAMMATEwEQYKKwYBBAGDsCoAAQQDAgECMB0GA1Ud
DgQWBBTGY2eVldQx5n8EuaSyDQmkN31oWTCBygYDVR0jBIHCMIG/gBSgrNcRUcEw
m/HANw6iw/nYaJG2vqGBm6SBmDCBlTELMAkGA1UEBhMCUEwxGTAXBgNVBAoMEFNN
T0sgc3AuIHogby4gby4xIzAhBgNVBAsMGlJvb3QgQ2VydGlmaWNhdGUgQXV0aG9y
aXR5MSgwJgYDVQQDDB9TTU9LIFJvb3QgQ2VydGlmaWNhdGUgQXV0aG9yaXR5MRww
GgYJKoZIhvcNAQkBFg1hZG1pbkBzbW9rLmNvggkAzftILwMaIN4wDgYDVR0PAQH/
BAQDAgbAMBYGA1UdJQEB/wQMMAoGCCsGAQUFBwMCMA0GCSqGSIb3DQEBCwUAA4IC
AQBUJbjvKJ6tIjQDT86YWH/C75dcmCxGSDjlEt06E3BPi3tQ6BKL9mZ1ko6P8e9t
kgbRbvrQlJlGXeqo+V+o0Cs5pKt5+XCgNdWh4HYI4qF1ambRfwg3SQjUo0o/U1Ek
G0eQ3lTUgrVyXG4judqYNpo1TZGSHOkopdukTR9gqEflwCfq6rzKepInggQnyCjk
hisRIqJmEBgwJGERFkt1Coa03nyuLi6QqYB9LukJGSACkHSV5WYxneIsk+HJ/ur4
nPwKqfqm8lI069seY+H3aO7bQ030gK7+jl5WMR2WjPbgBS3bxodhOiBEiwxmyCL9
DMNqZi5TUgYLSLp0GmvUu70FHTy4fMIs+w0vbojOHbxX0rls+2JrlbSl6LWNIFH3
sCHimWawEwYgYr7ZmmHClS50LpYW/aacpQ3xW99fehftna9xVJRWCtZrxKhAJehV
zRefr2QnydYNWmW/NuJ7Br1T+3CAGlURhJfT9pH4cQzyXUIaeRUGQfiWBgmH2/WA
piE46+WRhPRK06gKADtLtAnynYVu+VJ5xBaOH91eXjDGui7nNQNcFxAWlQHsrLyT
G5bSJ52b7df/DotpMrCIKL0tzv2wvBGW698aHbNGB08Em7IWdvjxgZU6rwUMuJSv
bTuM0GDNllsPytQ3oTYWK2SeaWHNj0bdqJHnvN6J3Gn0Cg==
-----END CERTIFICATE-----
