Certificate:
    Data:
        Version: 3 (0x2)
        Serial Number:
            94:99:be:14:93:8c:e5:3e
        Signature Algorithm: sha256WithRSAEncryption
        Issuer: C=PL, O=SMOK sp. z o. o., OU=Device Certificate Authority, CN=SMOK Device Certificate Authority
        Validity
            Not Before: Dec 27 16:19:53 2022 GMT
            Not After : Dec 27 16:19:53 2023 GMT
        Subject: C=PL, O=SMOK sp. z o. o. , OU=smok-client testing, CN=skylab
        Subject Public Key Info:
            Public Key Algorithm: rsaEncryption
                RSA Public-Key: (4096 bit)
                Modulus:
                    00:e0:52:ff:a3:d3:c0:57:27:50:10:ab:a5:6f:e4:
                    5b:f9:52:6f:28:9c:49:8e:35:b9:4a:cb:62:08:d9:
                    9e:04:2a:ab:b4:9b:1e:88:6a:63:9f:ae:08:10:61:
                    55:b0:32:37:69:b4:c2:d4:d0:56:2a:3d:45:3d:79:
                    5d:5e:a9:1e:90:03:c1:4e:da:3f:80:91:03:98:ba:
                    72:47:4b:84:2d:e5:03:33:b7:26:b9:ee:f4:82:2b:
                    ca:c1:18:17:42:f2:ce:b9:4c:0b:74:7c:d6:54:ca:
                    a7:a5:d5:63:78:ea:5f:e9:be:79:2a:0b:52:53:cc:
                    fc:d1:40:1a:03:ed:76:0f:00:b4:bc:de:c7:9f:5d:
                    cf:a9:a7:b9:ef:ee:b8:ae:1e:e6:51:e0:d6:95:47:
                    a0:a2:e8:aa:b5:a9:84:de:08:22:1e:25:2d:c3:c5:
                    a2:2d:e6:f2:29:82:61:0b:36:01:a3:2d:dc:1f:d9:
                    e4:0b:41:17:ba:dd:cf:da:75:fd:b1:8a:1b:a2:ec:
                    d9:92:57:c0:39:e3:86:68:c9:ab:9e:0d:33:e5:e6:
                    4e:65:d1:3d:a0:37:6d:1a:3d:2f:e4:45:e0:fc:c0:
                    cd:3d:46:c8:45:b7:2c:9c:e1:44:23:63:47:6f:a1:
                    0a:2f:38:77:d9:85:e7:89:16:5d:b8:12:30:ae:96:
                    f7:37:7d:28:25:9b:73:2a:f7:79:40:5e:c7:ee:b0:
                    ba:92:49:1d:e0:06:16:37:85:15:fe:df:92:2d:86:
                    9a:ce:35:e0:5e:44:e9:ca:93:cb:d0:eb:25:87:65:
                    93:bf:21:b0:b5:02:c9:af:98:de:1c:e3:6b:d5:c5:
                    a4:75:fa:4a:67:78:df:09:8b:34:3d:61:f0:65:c9:
                    00:e3:94:81:eb:66:c6:66:0a:e4:e9:5b:15:5b:35:
                    ff:82:de:a3:b7:28:f5:80:a9:3a:98:c6:3e:eb:0d:
                    ac:a5:e1:a5:a6:9a:b4:dc:c5:55:99:55:e2:31:26:
                    6c:96:ac:07:83:cf:b2:ac:ca:09:88:dc:2f:05:da:
                    e3:37:17:e0:f8:0d:2e:7e:14:d6:e6:2a:b8:d1:d6:
                    fd:47:9a:78:0f:07:02:52:bd:e7:ab:9a:5d:9a:b5:
                    35:01:04:02:f8:c6:b5:83:04:71:5c:85:ee:9f:f7:
                    9c:79:94:2c:c2:97:a5:be:da:ce:95:77:a7:c9:fc:
                    25:dd:a1:a3:b5:ba:87:ff:af:60:07:01:fc:c8:eb:
                    e8:08:35:2a:e3:64:27:54:06:f0:da:68:a5:93:fa:
                    c4:7a:5a:42:ba:9d:89:dd:6d:e3:c7:3c:3b:ae:42:
                    0a:65:33:1f:d8:fe:4a:d0:81:e6:ab:d7:fb:c1:61:
                    f9:9b:fb
                Exponent: 65537 (0x10001)
        X509v3 extensions:
            X509v3 Basic Constraints: critical
                CA:FALSE
            DeviceID:
                ..skylab
            Environment:
                ...
            X509v3 Subject Key Identifier:
                30:7E:AB:EB:40:F5:32:4B:88:72:27:2F:F0:B3:A9:CA:4D:3D:4F:0C
            X509v3 Authority Key Identifier:
                keyid:A0:AC:D7:11:51:C1:30:9B:F1:C0:37:0E:A2:C3:F9:D8:68:91:B6:BE
                DirName:/C=PL/O=SMOK sp. z o. o./OU=Root Certificate Authority/CN=SMOK Root Certificate Authority/emailAddress=admin@smok.co
                serial:CD:FB:48:2F:03:1A:20:DE

            X509v3 Key Usage: critical
                Digital Signature, Non Repudiation
            X509v3 Extended Key Usage: critical
                TLS Web Client Authentication, TLS Web Server Authentication
    Signature Algorithm: sha256WithRSAEncryption
         79:a5:17:7a:0f:36:6e:5b:f9:fc:d9:67:a2:47:b7:b4:cb:a0:
         fd:7c:81:60:12:2c:db:73:d0:cc:11:84:fc:3e:60:f8:d1:f5:
         f2:ab:c0:2f:50:80:d0:f0:21:db:e9:5c:6b:2e:bf:a7:4e:a2:
         8a:7b:b9:a8:29:88:40:02:c7:10:5b:ef:bb:62:c6:31:85:5b:
         39:29:b2:74:81:8f:7e:a6:6a:27:21:2c:a1:14:4d:09:fe:d2:
         c6:07:73:ff:b9:3f:d2:11:5a:21:aa:b0:d1:67:da:4a:cc:6c:
         96:7d:d6:d0:23:12:70:38:5c:00:9e:0e:38:51:e8:73:c6:84:
         67:5d:78:61:22:18:58:d0:91:a5:38:0d:57:a0:f7:25:7d:ca:
         e9:ac:0c:62:ee:c9:29:fc:e0:a0:5d:b3:bb:af:72:ad:dd:3a:
         5a:63:0b:c7:2f:5e:30:46:0b:79:df:64:fa:54:62:2f:d1:8e:
         10:2a:4b:66:7b:4b:d4:04:c0:c2:d2:aa:b2:92:a1:31:40:3d:
         34:a1:9c:a1:a5:12:d0:85:54:df:af:29:2f:cb:a6:43:a2:c8:
         71:0c:04:82:f0:f4:df:62:31:46:a6:8e:d1:07:15:bf:96:27:
         06:39:f9:45:9a:31:da:a0:c2:58:2e:f9:22:04:5e:05:24:c3:
         71:b2:db:33:3f:b6:20:b1:4c:35:fc:69:74:9e:25:08:5b:63:
         c8:0f:32:29:b1:fd:5d:30:41:49:d5:e6:f2:9f:65:72:e9:82:
         e0:62:ae:df:e1:df:db:f0:8a:b6:fa:36:8b:74:83:87:98:ef:
         f4:77:36:87:f3:57:66:f8:3c:c4:ac:0a:1e:2e:7d:ad:89:f0:
         e8:ab:50:45:19:4d:6f:52:4f:29:06:fa:c8:81:cb:e1:d2:79:
         94:2d:f5:24:21:a9:1c:78:be:9a:77:c5:0a:d0:cb:48:ed:ee:
         18:9d:93:e5:ba:ad:6b:20:f8:8e:29:2c:f5:38:48:64:11:d0:
         c2:f2:1a:6a:90:20:0a:1c:40:21:05:39:bd:43:2e:ed:0a:ab:
         94:00:6c:1a:93:a5:38:ab:18:48:e7:7b:ce:af:8c:58:06:7c:
         e6:fb:ab:67:77:c3:7d:6f:d8:6d:1f:04:da:7d:e3:4c:97:65:
         a1:15:c7:15:38:d1:38:27:34:47:7e:79:1a:f1:68:3c:ad:66:
         03:a6:2a:94:22:ee:a2:63:15:7a:4c:db:3a:72:b0:58:85:24:
         ff:e2:d8:61:3f:21:e6:00:f6:cc:56:ce:8a:2c:74:a4:90:7c:
         9b:68:90:40:81:8d:07:56:2d:29:e8:5f:ab:b9:22:48:b8:22:
         2b:6a:6d:52:b6:7e:01:3c
-----BEGIN CERTIFICATE-----
MIIGszCCBJugAwIBAgIJAJSZvhSTjOU+MA0GCSqGSIb3DQEBCwUAMHsxCzAJBgNV
BAYTAlBMMRkwFwYDVQQKDBBTTU9LIHNwLiB6IG8uIG8uMSUwIwYDVQQLDBxEZXZp
Y2UgQ2VydGlmaWNhdGUgQXV0aG9yaXR5MSowKAYDVQQDDCFTTU9LIERldmljZSBD
ZXJ0aWZpY2F0ZSBBdXRob3JpdHkwHhcNMjIxMjI3MTYxOTUzWhcNMjMxMjI3MTYx
OTUzWjBYMQswCQYDVQQGEwJQTDEaMBgGA1UECgwRU01PSyBzcC4geiBvLiBvLiAx
HDAaBgNVBAsME3Ntb2stY2xpZW50IHRlc3RpbmcxDzANBgNVBAMMBnNreWxhYjCC
AiIwDQYJKoZIhvcNAQEBBQADggIPADCCAgoCggIBAOBS/6PTwFcnUBCrpW/kW/lS
byicSY41uUrLYgjZngQqq7SbHohqY5+uCBBhVbAyN2m0wtTQVio9RT15XV6pHpAD
wU7aP4CRA5i6ckdLhC3lAzO3Jrnu9IIrysEYF0LyzrlMC3R81lTKp6XVY3jqX+m+
eSoLUlPM/NFAGgPtdg8AtLzex59dz6mnue/uuK4e5lHg1pVHoKLoqrWphN4IIh4l
LcPFoi3m8imCYQs2AaMt3B/Z5AtBF7rdz9p1/bGKG6Ls2ZJXwDnjhmjJq54NM+Xm
TmXRPaA3bRo9L+RF4PzAzT1GyEW3LJzhRCNjR2+hCi84d9mF54kWXbgSMK6W9zd9
KCWbcyr3eUBex+6wupJJHeAGFjeFFf7fki2Gms414F5E6cqTy9DrJYdlk78hsLUC
ya+Y3hzja9XFpHX6Smd43wmLND1h8GXJAOOUgetmxmYK5OlbFVs1/4Leo7co9YCp
OpjGPusNrKXhpaaatNzFVZlV4jEmbJasB4PPsqzKCYjcLwXa4zcX4PgNLn4U1uYq
uNHW/UeaeA8HAlK956uaXZq1NQEEAvjGtYMEcVyF7p/3nHmULMKXpb7azpV3p8n8
Jd2ho7W6h/+vYAcB/Mjr6Ag1KuNkJ1QG8NpopZP6xHpaQrqdid1t48c8O65CCmUz
H9j+StCB5qvX+8Fh+Zv7AgMBAAGjggFbMIIBVzAMBgNVHRMBAf8EAjAAMBYGCisG
AQQBg7AqAAAECAwGc2t5bGFiMBEGCisGAQQBg7AqAAEEAwIBATAdBgNVHQ4EFgQU
MH6r60D1MkuIcicv8LOpyk09TwwwgcoGA1UdIwSBwjCBv4AUoKzXEVHBMJvxwDcO
osP52GiRtr6hgZukgZgwgZUxCzAJBgNVBAYTAlBMMRkwFwYDVQQKDBBTTU9LIHNw
LiB6IG8uIG8uMSMwIQYDVQQLDBpSb290IENlcnRpZmljYXRlIEF1dGhvcml0eTEo
MCYGA1UEAwwfU01PSyBSb290IENlcnRpZmljYXRlIEF1dGhvcml0eTEcMBoGCSqG
SIb3DQEJARYNYWRtaW5Ac21vay5jb4IJAM37SC8DGiDeMA4GA1UdDwEB/wQEAwIG
wDAgBgNVHSUBAf8EFjAUBggrBgEFBQcDAgYIKwYBBQUHAwEwDQYJKoZIhvcNAQEL
BQADggIBAHmlF3oPNm5b+fzZZ6JHt7TLoP18gWASLNtz0MwRhPw+YPjR9fKrwC9Q
gNDwIdvpXGsuv6dOoop7uagpiEACxxBb77tixjGFWzkpsnSBj36maichLKEUTQn+
0sYHc/+5P9IRWiGqsNFn2krMbJZ91tAjEnA4XACeDjhR6HPGhGddeGEiGFjQkaU4
DVeg9yV9yumsDGLuySn84KBds7uvcq3dOlpjC8cvXjBGC3nfZPpUYi/RjhAqS2Z7
S9QEwMLSqrKSoTFAPTShnKGlEtCFVN+vKS/LpkOiyHEMBILw9N9iMUamjtEHFb+W
JwY5+UWaMdqgwlgu+SIEXgUkw3Gy2zM/tiCxTDX8aXSeJQhbY8gPMimx/V0wQUnV
5vKfZXLpguBirt/h39vwirb6Not0g4eY7/R3NofzV2b4PMSsCh4ufa2J8OirUEUZ
TW9STykG+siBy+HSeZQt9SQhqRx4vpp3xQrQy0jt7hidk+W6rWsg+I4pLPU4SGQR
0MLyGmqQIAocQCEFOb1DLu0Kq5QAbBqTpTirGEjne86vjFgGfOb7q2d3w31v2G0f
BNp940yXZaEVxxU40TgnNEd+eRrxaDytZgOmKpQi7qJjFXpM2zpysFiFJP/i2GE/
IeYA9sxWzoosdKSQfJtokECBjQdWLSnoX6u5Iki4IitqbVK2fgE8
-----END CERTIFICATE-----
