Certificate:
    Data:
        Version: 3 (0x2)
        Serial Number:
            94:99:be:14:93:8c:e5:39
    Signature Algorithm: sha256WithRSAEncryption
        Issuer: C=PL, O=SMOK sp. z o. o., OU=Device Certificate Authority, CN=SMOK Device Certificate Authority
        Validity
            Not Before: Nov  7 22:01:17 2020 GMT
            Not After : Nov  7 22:01:17 2021 GMT
        Subject: C=PL, O=SpaceHack 2020, CN=skylab
        Subject Public Key Info:
            Public Key Algorithm: rsaEncryption
                Public-Key: (1024 bit)
                Modulus:
                    00:d9:03:82:1e:59:e9:c7:9f:ce:bd:a7:ed:68:8e:
                    49:b8:ba:52:7c:e0:6d:14:5e:10:ea:29:7e:d7:4f:
                    8d:3b:a7:2d:67:18:2d:3d:a6:97:21:f7:c7:7b:90:
                    31:e0:de:d2:ce:27:bc:d0:a6:15:61:f1:f3:7d:5f:
                    e9:1c:2d:50:c5:cb:ff:72:76:c8:0d:48:9d:74:41:
                    d5:42:9e:f0:35:56:41:eb:38:bf:09:2a:d3:1d:3e:
                    3f:75:88:20:45:28:ae:29:1e:2a:c7:87:4d:c6:9a:
                    cd:3a:de:dd:7f:12:6d:24:bb:96:7b:7c:05:4c:47:
                    ca:34:8e:7a:0f:99:12:da:6f
                Exponent: 65537 (0x10001)
        X509v3 extensions:
            X509v3 Basic Constraints: critical
                CA:FALSE
            DeviceID: 
                ..skylab
            Environment: 
                ...
            X509v3 Subject Key Identifier: 
                C7:7B:A8:CA:37:DF:7B:1C:B6:CF:50:21:0D:85:0F:1B:F4:2A:6D:36
            X509v3 Authority Key Identifier: 
                keyid:A0:AC:D7:11:51:C1:30:9B:F1:C0:37:0E:A2:C3:F9:D8:68:91:B6:BE
                DirName:/C=PL/O=SMOK sp. z o. o./OU=Root Certificate Authority/CN=SMOK Root Certificate Authority/emailAddress=admin@smok.co
                serial:CD:FB:48:2F:03:1A:20:DE

            X509v3 Key Usage: critical
                Digital Signature, Non Repudiation
            X509v3 Extended Key Usage: critical
                TLS Web Client Authentication
    Signature Algorithm: sha256WithRSAEncryption
         9f:27:f4:ca:7e:70:ab:44:39:31:d9:e2:25:44:5d:d6:8a:1f:
         3a:95:f6:6c:e1:08:38:25:5c:4f:64:e1:20:bd:1a:2e:9d:6b:
         55:80:f3:2e:3e:7c:70:3a:13:71:dd:2d:00:e0:6b:9b:8c:5a:
         7e:d7:37:81:c6:ea:2d:49:5c:09:b3:b8:9d:61:a1:81:12:5b:
         c0:35:72:c4:76:98:5d:13:39:28:88:0e:10:c2:bf:0e:b2:dc:
         bb:2e:d5:e3:27:02:b6:6c:54:a8:1c:c7:1a:ad:24:6d:c5:dc:
         7b:8a:02:2e:12:bb:52:39:85:65:27:2f:32:2a:98:21:7f:df:
         d7:88:f6:0f:ca:e3:45:a9:51:ad:e0:45:c1:75:09:cd:8d:6b:
         78:6b:b5:d6:38:68:74:27:df:65:00:43:87:59:9a:53:97:1e:
         bb:88:b4:9a:03:f4:3a:e6:a5:db:7f:9b:fd:26:af:56:2f:6d:
         03:bb:2a:ab:b7:31:72:33:60:81:fb:97:f1:8e:29:a3:6f:fc:
         de:51:d5:1d:02:ba:95:a2:af:bb:12:db:1d:57:48:9a:03:60:
         c7:93:f0:1a:3c:9b:2b:5b:94:e9:69:83:bd:1e:a0:3e:a4:1d:
         c9:c6:f6:d5:19:4b:fa:9d:f3:4c:ce:e7:e2:36:09:08:cc:bb:
         ea:52:ef:6d:a7:29:ec:67:61:86:34:21:3e:07:1a:81:75:da:
         11:36:d1:e1:f6:01:f5:34:a9:33:28:80:71:40:f5:9a:10:82:
         0e:18:21:97:84:1e:4c:ac:77:91:34:95:91:ea:b7:32:47:f9:
         5c:c1:96:45:99:44:8e:9e:5b:56:cd:a2:b5:69:ec:9a:d7:4e:
         c6:29:8b:84:96:b8:10:f3:3a:b2:77:dc:62:90:8d:f6:ef:c0:
         17:48:45:98:62:f5:94:ee:e0:35:94:ad:48:be:14:7a:5a:96:
         99:37:5f:0b:4c:8e:c9:e2:93:53:04:a5:60:66:fb:07:97:0f:
         b0:89:51:bc:29:ea:b9:f0:5d:cd:a0:ed:79:c0:53:69:af:ee:
         d8:d6:7b:96:0b:36:68:76:12:4a:75:d7:fa:cd:c5:3d:d2:3c:
         73:5e:1f:15:07:ff:ac:1f:47:70:0b:4e:16:c1:1a:3d:32:87:
         60:ec:77:a9:d7:0b:59:85:f5:1f:f1:2e:8c:b8:30:ca:ea:38:
         44:b8:fb:2f:05:82:0e:bd:61:ae:cf:6c:44:81:d8:22:a8:ba:
         87:d0:71:ef:8e:18:66:07:37:3a:73:23:e6:e1:1e:14:92:1f:
         fd:17:2b:05:49:02:85:71:63:ba:11:e0:cf:af:87:b8:26:38:
         95:ad:fd:6f:1d:80:5c:ca
-----BEGIN CERTIFICATE-----
MIIFBDCCAuygAwIBAgIJAJSZvhSTjOU5MA0GCSqGSIb3DQEBCwUAMHsxCzAJBgNV
BAYTAlBMMRkwFwYDVQQKDBBTTU9LIHNwLiB6IG8uIG8uMSUwIwYDVQQLDBxEZXZp
Y2UgQ2VydGlmaWNhdGUgQXV0aG9yaXR5MSowKAYDVQQDDCFTTU9LIERldmljZSBD
ZXJ0aWZpY2F0ZSBBdXRob3JpdHkwHhcNMjAxMTA3MjIwMTE3WhcNMjExMTA3MjIw
MTE3WjA3MQswCQYDVQQGEwJQTDEXMBUGA1UECgwOU3BhY2VIYWNrIDIwMjAxDzAN
BgNVBAMMBnNreWxhYjCBnzANBgkqhkiG9w0BAQEFAAOBjQAwgYkCgYEA2QOCHlnp
x5/OvaftaI5JuLpSfOBtFF4Q6il+10+NO6ctZxgtPaaXIffHe5Ax4N7Szie80KYV
YfHzfV/pHC1Qxcv/cnbIDUiddEHVQp7wNVZB6zi/CSrTHT4/dYggRSiuKR4qx4dN
xprNOt7dfxJtJLuWe3wFTEfKNI56D5kS2m8CAwEAAaOCAVEwggFNMAwGA1UdEwEB
/wQCMAAwFgYKKwYBBAGDsCoAAAQIDAZza3lsYWIwEQYKKwYBBAGDsCoAAQQDAgEB
MB0GA1UdDgQWBBTHe6jKN997HLbPUCENhQ8b9CptNjCBygYDVR0jBIHCMIG/gBSg
rNcRUcEwm/HANw6iw/nYaJG2vqGBm6SBmDCBlTELMAkGA1UEBhMCUEwxGTAXBgNV
BAoMEFNNT0sgc3AuIHogby4gby4xIzAhBgNVBAsMGlJvb3QgQ2VydGlmaWNhdGUg
QXV0aG9yaXR5MSgwJgYDVQQDDB9TTU9LIFJvb3QgQ2VydGlmaWNhdGUgQXV0aG9y
aXR5MRwwGgYJKoZIhvcNAQkBFg1hZG1pbkBzbW9rLmNvggkAzftILwMaIN4wDgYD
VR0PAQH/BAQDAgbAMBYGA1UdJQEB/wQMMAoGCCsGAQUFBwMCMA0GCSqGSIb3DQEB
CwUAA4ICAQCfJ/TKfnCrRDkx2eIlRF3Wih86lfZs4Qg4JVxPZOEgvRounWtVgPMu
PnxwOhNx3S0A4GubjFp+1zeBxuotSVwJs7idYaGBElvANXLEdphdEzkoiA4Qwr8O
sty7LtXjJwK2bFSoHMcarSRtxdx7igIuErtSOYVlJy8yKpghf9/XiPYPyuNFqVGt
4EXBdQnNjWt4a7XWOGh0J99lAEOHWZpTlx67iLSaA/Q65qXbf5v9Jq9WL20Duyqr
tzFyM2CB+5fxjimjb/zeUdUdArqVoq+7EtsdV0iaA2DHk/AaPJsrW5TpaYO9HqA+
pB3JxvbVGUv6nfNMzufiNgkIzLvqUu9tpynsZ2GGNCE+BxqBddoRNtHh9gH1NKkz
KIBxQPWaEIIOGCGXhB5MrHeRNJWR6rcyR/lcwZZFmUSOnltWzaK1aeya107GKYuE
lrgQ8zqyd9xikI3278AXSEWYYvWU7uA1lK1IvhR6WpaZN18LTI7J4pNTBKVgZvsH
lw+wiVG8Keq58F3NoO15wFNpr+7Y1nuWCzZodhJKddf6zcU90jxzXh8VB/+sH0dw
C04WwRo9Modg7Hep1wtZhfUf8S6MuDDK6jhEuPsvBYIOvWGuz2xEgdgiqLqH0HHv
jhhmBzc6cyPm4R4Ukh/9FysFSQKFcWO6EeDPr4e4JjiVrf1vHYBcyg==
-----END CERTIFICATE-----
